target datalayout = "e-m:e-p270:32:32-p271:32:32-p272:64:64-i64:64-i128:128-f80:128-n8:16:32:64-S128"
target triple = "x86_64-pc-linux-gnu"

%struct.expert_field = type { i32, i32 }

@hf_r3_commandlength = internal global i32 0, align 4
@hf_r3_command = internal global i32 0, align 4
@hf_r3_commanddata = internal global i32 0, align 4
@ei_r3_cmd_downloadfirmwaretimeout = internal global %struct.expert_field zeroinitializer, align 4

; Function Attrs: null_pointer_is_valid sspstrong uwtable
define internal void @dissect_r3_cmd_downloadfirmwaretimeout(ptr noundef %0, i32 noundef %1, i32 noundef %2, ptr noundef %3, ptr noundef %4) #0 {
  %6 = alloca ptr, align 8
  %7 = alloca i32, align 4
  %8 = alloca i32, align 4
  %9 = alloca ptr, align 8
  %10 = alloca ptr, align 8
  %11 = alloca i8, align 1
  %12 = alloca ptr, align 8
  store ptr %0, ptr %6, align 8
  store i32 %1, ptr %7, align 4
  store i32 %2, ptr %8, align 4
  store ptr %3, ptr %9, align 8
  store ptr %4, ptr %10, align 8
  call void @llvm.lifetime.start.p0(i64 1, ptr %11) #5
  call void @llvm.lifetime.start.p0(i64 8, ptr %12) #5
  %13 = load ptr, ptr %10, align 8
  %14 = icmp ne ptr %13, null
  br i1 %14, label %15, label %43

15:                                               ; preds = %5
  %16 = load ptr, ptr %6, align 8
  %17 = load i32, ptr %7, align 4
  %18 = add i32 %17, 0
  %19 = call zeroext i8 @tvb_get_uint8(ptr noundef %16, i32 noundef %18)
  store i8 %19, ptr %11, align 1
  %20 = load ptr, ptr %6, align 8
  %21 = load i32, ptr %7, align 4
  %22 = add i32 %21, 2
  %23 = load i8, ptr %11, align 1
  %24 = zext i8 %23 to i32
  %25 = sub i32 %24, 2
  %26 = call ptr @tvb_new_subset_length(ptr noundef %20, i32 noundef %22, i32 noundef %25)
  store ptr %26, ptr %12, align 8
  %27 = load ptr, ptr %10, align 8
  %28 = load i32, ptr @hf_r3_commandlength, align 4
  %29 = load ptr, ptr %6, align 8
  %30 = load i32, ptr %7, align 4
  %31 = add i32 %30, 0
  %32 = call ptr @proto_tree_add_item(ptr noundef %27, i32 noundef %28, ptr noundef %29, i32 noundef %31, i32 noundef 1, i32 noundef -2147483648)
  %33 = load ptr, ptr %10, align 8
  %34 = load i32, ptr @hf_r3_command, align 4
  %35 = load ptr, ptr %6, align 8
  %36 = load i32, ptr %7, align 4
  %37 = add i32 %36, 1
  %38 = call ptr @proto_tree_add_item(ptr noundef %33, i32 noundef %34, ptr noundef %35, i32 noundef %37, i32 noundef 1, i32 noundef -2147483648)
  %39 = load ptr, ptr %10, align 8
  %40 = load i32, ptr @hf_r3_commanddata, align 4
  %41 = load ptr, ptr %12, align 8
  %42 = call ptr @proto_tree_add_item(ptr noundef %39, i32 noundef %40, ptr noundef %41, i32 noundef 0, i32 noundef -1, i32 noundef 0)
  br label %43

43:                                               ; preds = %15, %5
  %44 = load ptr, ptr %9, align 8
  %45 = load ptr, ptr %10, align 8
  %46 = call ptr @proto_tree_get_parent(ptr noundef %45)
  %47 = call ptr @expert_add_info(ptr noundef %44, ptr noundef %46, ptr noundef @ei_r3_cmd_downloadfirmwaretimeout)
  call void @llvm.lifetime.end.p0(i64 8, ptr %12) #5
  call void @llvm.lifetime.end.p0(i64 1, ptr %11) #5
  ret void
}